; Function Attrs: mustprogress nounwind uwtable
define hidden noundef ptr @_ZN2os10dll_lookupEPvPKc(ptr noundef %0, ptr noundef %1) local_unnamed_addr #1 align 2 {
  %3 = tail call ptr @dlerror() #25
  %4 = tail call ptr @dlsym(ptr noundef %0, ptr noundef %1) #25
  %5 = icmp eq ptr %4, null
  br i1 %5, label %6, label %11

6:                                                ; preds = %2
  %7 = tail call ptr @dlerror() #25
  %.not = icmp eq ptr %7, null
  br i1 %.not, label %11, label %8

8:                                                ; preds = %6
  %9 = load volatile ptr, ptr getelementptr inbounds (i8, ptr @_ZN16LogTagSetMappingILN6LogTag4typeE105ELS1_0ELS1_0ELS1_0ELS1_0ELS1_0EE7_tagsetE, i64 56), align 8
  %.not7 = icmp eq ptr %9, null
  br i1 %.not7, label %11, label %10

10:                                               ; preds = %8
  tail call void (ptr, ...) @_ZN7LogImplILN6LogTag4typeE105ELS1_0ELS1_0ELS1_0ELS1_0ELS1_0EE5writeILN8LogLevel4typeE2EEEvPKcz(ptr noundef nonnull @.str.59, ptr noundef %1, ptr noundef nonnull %7)
  br label %11

11:                                               ; preds = %6, %8, %10, %2
  ret ptr %4
}